Certificate:
    Data:
        Version: 3 (0x2)
        Serial Number:
            79:57:4b:00:0e:7c:cc:f5:7e:fe:ad:8a:ac:d2:4c:35:b6:e1:30:59
        Signature Algorithm: sha256WithRSAEncryption
        Issuer: CN = QUIC Server Root CA
        Validity
            Not Before: Jun 23 04:33:38 2021 GMT
            Not After : Jun 26 04:33:38 2021 GMT
        Subject: CN = QUIC Server Root CA
        Subject Public Key Info:
            Public Key Algorithm: rsaEncryption
                RSA Public-Key: (2048 bit)
                Modulus:
                    00:b4:ef:38:56:70:66:f3:f7:31:ab:be:8f:91:8a:
                    f1:34:a2:2d:16:ca:8e:5a:1f:75:c3:4d:d9:e2:02:
                    c9:80:1b:c4:dc:d4:bf:f8:6b:2a:35:f5:22:8f:a4:
                    64:d3:3d:dc:18:34:e0:00:1d:b0:8b:10:a9:2d:07:
                    9c:a9:99:d5:d0:a7:83:11:a2:14:9f:dc:78:1f:10:
                    68:46:53:9a:f6:5c:1b:4f:35:4b:20:cf:dd:30:d0:
                    b7:eb:59:8e:b9:d2:c6:61:fb:25:15:d9:79:a4:72:
                    d5:be:44:e1:06:6c:69:f4:0b:d4:a3:5f:d2:47:9d:
                    e1:04:b1:73:a2:11:b8:0b:09:58:5f:cb:f2:85:2b:
                    6e:bb:87:d8:05:af:1a:fb:e5:4b:7e:d2:95:97:85:
                    09:48:45:19:02:68:d2:f1:4f:a6:86:6d:f4:e7:9a:
                    11:79:4e:c0:45:ba:58:0d:1b:ed:0c:2e:14:38:da:
                    3b:be:19:5d:62:9b:68:89:9a:eb:4c:18:f6:df:d7:
                    25:f6:90:9b:51:93:1b:0f:eb:f2:0c:f7:b8:7d:de:
                    e1:64:6d:98:b2:a2:79:4f:a6:46:fd:06:91:cf:08:
                    73:c9:b5:03:43:f2:3b:c1:eb:cd:d6:e1:90:56:f9:
                    7b:6f:63:de:37:c9:ad:f5:86:78:32:57:9f:f2:8f:
                    b6:5f
                Exponent: 65537 (0x10001)
        X509v3 extensions:
            X509v3 Basic Constraints: critical
                CA:TRUE
            X509v3 Subject Key Identifier: 
                44:09:7E:18:4F:68:43:61:11:BC:81:5D:96:E8:D9:5D:93:83:B0:42
            X509v3 Key Usage: critical
                Certificate Sign, CRL Sign
    Signature Algorithm: sha256WithRSAEncryption
         4a:9e:be:93:ff:06:42:d9:42:d4:17:77:ff:47:f6:7a:d8:c6:
         a2:5f:b4:98:fd:44:2e:94:3a:a5:ed:6b:e2:75:f2:9b:f6:2b:
         e4:5f:90:56:c1:e5:b9:18:87:79:d9:23:54:e2:18:d5:be:1f:
         3b:62:91:74:d3:b4:ac:ed:4a:45:94:61:58:63:a6:e5:8d:d4:
         c5:e8:c7:29:d8:1f:03:e3:c3:78:56:df:83:35:ba:2e:7a:40:
         ab:1f:10:63:e6:67:d1:a2:f4:8f:0f:c2:f6:a3:d2:1f:99:78:
         46:48:ea:83:f3:c9:0d:d8:ec:36:1d:cc:53:23:c0:96:6d:42:
         bf:8e:b9:65:98:ed:2c:37:ed:31:39:6f:a7:e7:66:52:7d:4b:
         58:ec:7f:8c:9b:75:5a:70:b2:ca:5a:91:23:f2:00:d7:83:c4:
         8b:30:10:6e:e5:58:d8:bd:95:ff:04:5a:aa:97:c6:60:e5:4b:
         10:3a:67:5e:6a:0e:74:e4:82:3f:a3:2f:6f:47:9c:d3:3c:46:
         30:d0:57:cf:c1:48:1e:55:40:ac:0d:d7:c7:9c:b4:07:36:55:
         4f:c6:bf:8d:58:a5:5f:09:b2:0e:54:b7:42:52:04:2a:d6:26:
         e8:c2:e7:c7:f3:8d:ae:ce:ae:67:04:66:65:a0:4f:53:8d:ce:
         a1:2a:88:8f
-----BEGIN CERTIFICATE-----
MIIDDDCCAfSgAwIBAgIUeVdLAA58zPV+/q2KrNJMNbbhMFkwDQYJKoZIhvcNAQEL
BQAwHjEcMBoGA1UEAwwTUVVJQyBTZXJ2ZXIgUm9vdCBDQTAeFw0yMTA2MjMwNDMz
MzhaFw0yMTA2MjYwNDMzMzhaMB4xHDAaBgNVBAMME1FVSUMgU2VydmVyIFJvb3Qg
Q0EwggEiMA0GCSqGSIb3DQEBAQUAA4IBDwAwggEKAoIBAQC07zhWcGbz9zGrvo+R
ivE0oi0Wyo5aH3XDTdniAsmAG8Tc1L/4ayo19SKPpGTTPdwYNOAAHbCLEKktB5yp
mdXQp4MRohSf3HgfEGhGU5r2XBtPNUsgz90w0LfrWY650sZh+yUV2XmkctW+ROEG
bGn0C9SjX9JHneEEsXOiEbgLCVhfy/KFK267h9gFrxr75Ut+0pWXhQlIRRkCaNLx
T6aGbfTnmhF5TsBFulgNG+0MLhQ42ju+GV1im2iJmutMGPbf1yX2kJtRkxsP6/IM
97h93uFkbZiyonlPpkb9BpHPCHPJtQND8jvB683W4ZBW+XtvY943ya31hngyV5/y
j7ZfAgMBAAGjQjBAMA8GA1UdEwEB/wQFMAMBAf8wHQYDVR0OBBYEFEQJfhhPaENh
EbyBXZbo2V2Tg7BCMA4GA1UdDwEB/wQEAwIBBjANBgkqhkiG9w0BAQsFAAOCAQEA
Sp6+k/8GQtlC1Bd3/0f2etjGol+0mP1ELpQ6pe1r4nXym/Yr5F+QVsHluRiHedkj
VOIY1b4fO2KRdNO0rO1KRZRhWGOm5Y3UxejHKdgfA+PDeFbfgzW6LnpAqx8QY+Zn
0aL0jw/C9qPSH5l4Rkjqg/PJDdjsNh3MUyPAlm1Cv465ZZjtLDftMTlvp+dmUn1L
WOx/jJt1WnCyylqRI/IA14PEizAQbuVY2L2V/wRaqpfGYOVLEDpnXmoOdOSCP6Mv
b0ec0zxGMNBXz8FIHlVArA3Xx5y0BzZVT8a/jVilXwmyDlS3QlIEKtYm6MLnx/ON
rs6uZwRmZaBPU43OoSqIjw==
-----END CERTIFICATE-----
