Certificate:
    Data:
        Version: 3 (0x2)
        Serial Number: 1 (0x1)
        Signature Algorithm: sha256WithRSAEncryption
        Issuer: CN=QUIC Server Root CA
        Validity
            Not Before: Jun 23 04:33:38 2021 GMT
            Not After : Jun 26 04:33:38 2021 GMT
        Subject: C=US, ST=California, L=Mountain View, O=QUIC Server, CN=127.0.0.1
        Subject Public Key Info:
            Public Key Algorithm: rsaEncryption
                RSA Public-Key: (2048 bit)
                Modulus:
                    00:a8:e5:1a:76:23:72:de:64:2f:ad:9d:b1:70:d9:
                    31:e9:03:63:ca:b6:6a:ff:fd:16:07:d1:5a:16:fd:
                    69:7e:d8:a2:f6:cb:3f:2c:74:f9:89:3e:48:c4:65:
                    99:ba:05:4e:7e:6d:c5:ae:21:87:f2:33:ed:16:26:
                    4b:a7:1e:ef:19:4f:32:3f:db:2a:9f:23:6f:a4:5d:
                    a2:f0:74:86:a7:57:19:8f:a0:45:6c:7f:89:01:fe:
                    0a:31:ff:b5:70:f8:23:cd:60:6a:3e:04:84:0f:74:
                    f4:ac:1b:c8:41:c9:2c:5c:d1:89:db:77:8b:b6:14:
                    fb:36:d8:c6:59:18:ce:84:3f:86:e5:50:67:4c:1e:
                    89:bc:f6:1c:c1:cc:d6:df:51:62:60:59:bf:6f:08:
                    95:e5:d2:97:cd:6f:04:c7:be:d4:39:c5:3e:90:b3:
                    a9:23:f9:39:f4:16:cb:62:01:43:9c:65:a3:55:2a:
                    5e:bd:a0:cc:5a:a1:9e:1e:bd:6d:b0:ec:a5:64:39:
                    78:ef:99:23:0e:1e:e2:42:d5:bc:6a:c3:38:a9:cd:
                    75:4b:92:b6:31:65:8e:65:2e:f1:ed:56:43:04:6f:
                    1f:2a:cb:17:5d:74:49:17:45:d8:3c:78:57:e5:e5:
                    71:22:0a:8e:6a:8c:f4:69:d7:8d:79:11:eb:01:21:
                    4a:0f
                Exponent: 65537 (0x10001)
        X509v3 extensions:
            X509v3 Basic Constraints: critical
                CA:FALSE
            X509v3 Subject Key Identifier: 
                51:2C:78:3A:56:46:05:81:3D:9F:5D:6B:9C:CD:35:DA:54:D7:2B:46
            X509v3 Authority Key Identifier: 
                keyid:44:09:7E:18:4F:68:43:61:11:BC:81:5D:96:E8:D9:5D:93:83:B0:42

            X509v3 Extended Key Usage: 
                TLS Web Server Authentication, TLS Web Client Authentication
            X509v3 Subject Alternative Name: 
                DNS:www.example.org, DNS:mail.example.org, DNS:mail.example.com, IP Address:127.0.0.1
    Signature Algorithm: sha256WithRSAEncryption
         89:29:0e:a6:e4:d0:ee:17:a3:93:15:e9:df:dd:93:79:53:3f:
         94:c1:51:64:d8:5c:3b:43:3b:61:c4:4b:d0:a4:ef:e0:05:c0:
         e8:2e:38:66:6c:87:47:63:58:b2:bf:9f:dc:41:07:9a:d5:ef:
         45:83:fa:a5:95:98:95:fa:2c:44:aa:bd:ef:99:1e:48:bb:8d:
         42:49:8c:38:3b:b4:2a:14:4d:b5:89:3a:ad:aa:ef:cc:01:b9:
         1e:63:7a:6c:1d:bb:0a:bd:e1:d5:c1:24:58:fd:80:91:d1:e4:
         bd:48:de:0d:ff:f4:53:4d:d5:ce:d2:63:f7:67:b4:d9:35:26:
         c7:77:21:3b:0a:71:c1:b8:09:83:8f:b9:1f:d2:3f:cd:72:2b:
         9f:4d:cb:21:3e:c4:54:ef:80:95:f6:8c:69:6e:62:5f:0b:de:
         f9:d6:b2:1f:d8:e4:be:54:2d:d4:63:c5:0d:40:14:d7:8d:57:
         d1:e3:3c:8c:5e:50:74:99:e0:b9:00:4b:5b:6b:88:49:84:61:
         03:cc:88:cd:f4:c0:94:a5:57:8b:93:46:d4:6c:46:14:78:b1:
         b9:3f:ae:d3:b7:96:6f:b4:12:47:2e:52:98:73:19:31:3d:06:
         cc:7a:91:cf:25:2c:73:cc:f1:3d:1e:07:60:de:d4:e6:ee:a9:
         2e:93:3e:e9
-----BEGIN CERTIFICATE-----
MIIDtDCCApygAwIBAgIBATANBgkqhkiG9w0BAQsFADAeMRwwGgYDVQQDDBNRVUlD
IFNlcnZlciBSb290IENBMB4XDTIxMDYyMzA0MzMzOFoXDTIxMDYyNjA0MzMzOFow
ZDELMAkGA1UEBhMCVVMxEzARBgNVBAgMCkNhbGlmb3JuaWExFjAUBgNVBAcMDU1v
dW50YWluIFZpZXcxFDASBgNVBAoMC1FVSUMgU2VydmVyMRIwEAYDVQQDDAkxMjcu
MC4wLjEwggEiMA0GCSqGSIb3DQEBAQUAA4IBDwAwggEKAoIBAQCo5Rp2I3LeZC+t
nbFw2THpA2PKtmr//RYH0VoW/Wl+2KL2yz8sdPmJPkjEZZm6BU5+bcWuIYfyM+0W
JkunHu8ZTzI/2yqfI2+kXaLwdIanVxmPoEVsf4kB/gox/7Vw+CPNYGo+BIQPdPSs
G8hBySxc0Ynbd4u2FPs22MZZGM6EP4blUGdMHom89hzBzNbfUWJgWb9vCJXl0pfN
bwTHvtQ5xT6Qs6kj+Tn0FstiAUOcZaNVKl69oMxaoZ4evW2w7KVkOXjvmSMOHuJC
1bxqwzipzXVLkrYxZY5lLvHtVkMEbx8qyxdddEkXRdg8eFfl5XEiCo5qjPRp1415
EesBIUoPAgMBAAGjgbYwgbMwDAYDVR0TAQH/BAIwADAdBgNVHQ4EFgQUUSx4OlZG
BYE9n11rnM012lTXK0YwHwYDVR0jBBgwFoAURAl+GE9oQ2ERvIFdlujZXZODsEIw
HQYDVR0lBBYwFAYIKwYBBQUHAwEGCCsGAQUFBwMCMEQGA1UdEQQ9MDuCD3d3dy5l
eGFtcGxlLm9yZ4IQbWFpbC5leGFtcGxlLm9yZ4IQbWFpbC5leGFtcGxlLmNvbYcE
fwAAATANBgkqhkiG9w0BAQsFAAOCAQEAiSkOpuTQ7hejkxXp392TeVM/lMFRZNhc
O0M7YcRL0KTv4AXA6C44ZmyHR2NYsr+f3EEHmtXvRYP6pZWYlfosRKq975keSLuN
QkmMODu0KhRNtYk6rarvzAG5HmN6bB27Cr3h1cEkWP2AkdHkvUjeDf/0U03VztJj
92e02TUmx3chOwpxwbgJg4+5H9I/zXIrn03LIT7EVO+AlfaMaW5iXwve+dayH9jk
vlQt1GPFDUAU141X0eM8jF5QdJnguQBLW2uISYRhA8yIzfTAlKVXi5NG1GxGFHix
uT+u07eWb7QSRy5SmHMZMT0GzHqRzyUsc8zxPR4HYN7U5u6pLpM+6Q==
-----END CERTIFICATE-----
